#include <math.h>
#include <stdio.h>
#include <stdlib.h>
#include <string.h>

int main(){
	int n,i,j,k,sum,len;
	scanf("%d",&n);
	char a[100];
	for(i=0;i<n;i++){
		scanf("%s",a);
		len=strlen(a);
		for(j=0;j<len;j++){
			sum=0;
			for(k=0;k<len;k++){
				if(a[j]==a[k]){
					sum++;
                                      }
                             }
			if(sum==1){
				printf("%c\n",a[j]);
				break;
                             }
                   }
                   if(sum!=1){
                                  printf("no\n"); 
                             } 
                    
          }
  return 0; 
} 